(dp1
I1435195965442
(lp2
I2
aI1
asI1435199965187
(lp3
I9
aI3
asI1435199976741
(lp4
I6
aI3
asI1435196061702
(lp5
I2
aI1
asI1435196712968
(lp6
I2
aI1
asI1435197753004
(lp7
I2
aI1
asI1435195772958
(lp8
I2
aI1
asI1435196487692
(lp9
I2
aI1
asI1435194727792
(lp10
I17
aI0
asI1435197923346
(lp11
I2
aI1
asI1435195199509
(lp12
I2
aI1
asI1435197720598
(lp13
I2
aI1
asI1435198967831
(lp14
I8
aI6
asI1435196346393
(lp15
I4
aI3
asI1435197347866
(lp16
I4
aI3
asI1435195568474
(lp17
I2
aI1
asI1435198208030
(lp18
I6
aI0
asI1435195869216
(lp19
I2
aI1
asI1435197089826
(lp20
I3
aI2
asI1435195011107
(lp21
I2
aI1
asI1435196669988
(lp22
I2
aI1
asI1435198216230
(lp23
I7
aI0
asI1435195295784
(lp24
I2
aI1
asI1435198412842
(lp25
I6
aI0
asI1435195584556
(lp26
I2
aI1
asI1435200014685
(lp27
I10
aI5
asI1435198029872
(lp28
I8
aI5
asI1435197400072
(lp29
I3
aI2
asI1435198019634
(lp30
I7
aI4
asI1435197716531
(lp31
I2
aI1
asI1435198505012
(lp32
I9
aI0
asI1435195676729
(lp33
I2
aI1
asI1435199559738
(lp34
I8
aI2
asI1435195380063
(lp35
I3
aI2
asI1435195692765
(lp36
I2
aI1
asI1435197179969
(lp37
I2
aI1
asI1435195392067
(lp38
I2
aI1
asI1435196153924
(lp39
I2
aI1
asI1435197272133
(lp40
I4
aI3
asI1435196575816
(lp41
I2
aI1
asI1435198470219
(lp42
I17
aI2
asI1435196708940
(lp43
I2
aI1
asI1435196805198
(lp44
I3
aI2
asI1435197013688
(lp45
I4
aI3
asI1435198015570
(lp46
I4
aI3
asI1435197624405
(lp47
I2
aI1
asI1435199023191
(lp48
I5
aI0
asI1435198703705
(lp49
I8
aI0
asI1435199952986
(lp50
I7
aI2
asI1435196250203
(lp51
I3
aI2
asI1435197532253
(lp52
I2
aI1
asI1435198062690
(lp53
I12
aI3
asI1435195580515
(lp54
I2
aI1
asI1435195007079
(lp55
I2
aI1
asI1435195865192
(lp56
I2
aI1
asI1435197732969
(lp57
I2
aI1
asI1435199958456
(lp58
I6
aI2
asI1435196057708
(lp59
I2
aI1
asI1435195488274
(lp60
I2
aI1
asI1435195195504
(lp61
I2
aI1
asI1435198980209
(lp62
I9
aI5
asI1435198204020
(lp63
I10
aI0
asI1435197440072
(lp64
I2
aI1
asI1435199807609
(lp65
I8
aI2
asI1435200026133
(lp66
I8
aI5
asI1435195123391
(lp67
I2
aI1
asI1435197919357
(lp68
I2
aI1
asI1435196809237
(lp69
I4
aI3
asI1435198500992
(lp70
I6
aI0
asI1435195103361
(lp71
I2
aI1
asI1435198158979
(lp72
I16
aI2
asI1435195388036
(lp73
I2
aI1
asI1435199537174
(lp74
I8
aI4
asI1435195484295
(lp75
I2
aI1
asI1435195347957
(lp76
I2
aI1
asI1435196665999
(lp77
I4
aI3
asI1435197175954
(lp78
I2
aI1
asI1435196342419
(lp79
I2
aI1
asI1435197911188
(lp80
I2
aI1
asI1435195961497
(lp81
I2
aI1
asI1435196479642
(lp82
I4
aI3
asI1435195672731
(lp83
I2
aI1
asI1435196242217
(lp84
I4
aI3
asI1435195576481
(lp85
I2
aI1
asI1435195291810
(lp86
I2
aI1
asI1435197620387
(lp87
I3
aI2
asI1435196704932
(lp88
I3
aI2
asI1435196571813
(lp89
I3
aI2
asI1435197712550
(lp90
I2
aI1
asI1435198963879
(lp91
I10
aI8
asI1435197528235
(lp92
I2
aI1
asI1435196989615
(lp93
I2
aI1
asI1435195957426
(lp94
I2
aI1
asI1435196801204
(lp95
I3
aI2
asI1435197927454
(lp96
I2
aI1
asI1435197819062
(lp97
I2
aI1
asI1435198011576
(lp98
I2
aI1
asI1435196053689
(lp99
I2
aI1
asI1435196258244
(lp100
I4
aI3
asI1435195003070
(lp101
I3
aI2
asI1435199717567
(lp102
I10
aI4
asI1435196149953
(lp103
I2
aI1
asI1435199359170
(lp104
I5
aI1
asI1435196338371
(lp105
I2
aI1
asI1435195861191
(lp106
I3
aI2
asI1435198959816
(lp107
I10
aI6
asI1435197436106
(lp108
I2
aI1
asI1435199346891
(lp109
I7
aI0
asI1435196246220
(lp110
I3
aI2
asI1435196661970
(lp111
I3
aI2
asI1435197628451
(lp112
I2
aI1
asI1435196985558
(lp113
I4
aI3
asI1435197815001
(lp114
I2
aI1
asI1435199240412
(lp115
I6
aI1
asI1435197081822
(lp116
I2
aI1
asI1435195191519
(lp117
I2
aI1
asI1435198095589
(lp118
I16
aI1
asI1435198497002
(lp119
I6
aI0
asI1435197268205
(lp120
I3
aI2
asI1435194999022
(lp121
I2
aI1
asI1435197171951
(lp122
I2
aI1
asI1435195384048
(lp123
I3
aI2
asI1435197335794
(lp124
I4
aI3
asI1435195480307
(lp125
I3
aI2
asI1435196700916
(lp126
I3
aI2
asI1435194995070
(lp127
I6
aI3
asI1435196097850
(lp128
I2
aI1
asI1435198492927
(lp129
I3
aI0
asI1435196797185
(lp130
I4
aI3
asI1435195668738
(lp131
I2
aI1
asI1435198955779
(lp132
I11
aI7
asI1435198251268
(lp133
I6
aI1
asI1435197899167
(lp134
I2
aI1
asI1435197524231
(lp135
I2
aI1
asI1435196621868
(lp136
I2
aI1
asI1435197616396
(lp137
I4
aI3
asI1435197073795
(lp138
I4
aI3
asI1435195187477
(lp139
I2
aI1
asI1435198007577
(lp140
I4
aI3
asI1435196897327
(lp141
I3
aI2
asI1435196145948
(lp142
I2
aI1
asI1435196865242
(lp143
I3
aI2
asI1435195476254
(lp144
I2
aI1
asI1435195107376
(lp145
I2
aI1
asI1435194843427
(lp146
I19
aI2
asI1435197167908
(lp147
I2
aI1
asI1435195183494
(lp148
I2
aI1
asI1435198458152
(lp149
I3
aI0
asI1435195572521
(lp150
I2
aI1
asI1435196049708
(lp151
I2
aI1
asI1435195283757
(lp152
I2
aI1
asI1435196334383
(lp153
I2
aI1
asI1435195327880
(lp154
I2
aI1
asI1435199765646
(lp155
I8
aI4
asI1435196657972
(lp156
I2
aI1
asI1435195857207
(lp157
I2
aI1
asI1435195760954
(lp158
I2
aI1
asI1435197708605
(lp159
I2
aI1
asI1435199443262
(lp160
I6
aI1
asI1435197612351
(lp161
I3
aI2
asI1435197903175
(lp162
I2
aI1
asI1435195949386
(lp163
I2
aI1
asI1435196077794
(lp164
I2
aI1
asI1435197428047
(lp165
I3
aI2
asI1435196696913
(lp166
I3
aI2
asI1435196793170
(lp167
I2
aI1
asI1435195135408
(lp168
I2
aI1
asI1435197260117
(lp169
I3
aI2
asI1435199801687
(lp170
I7
aI3
asI1435196045656
(lp171
I2
aI1
asI1435199898340
(lp172
I7
aI3
asI1435196563802
(lp173
I3
aI2
asI1435197264221
(lp174
I4
aI3
asI1435198951775
(lp175
I5
aI3
asI1435196238181
(lp176
I2
aI1
asI1435195472230
(lp177
I2
aI1
asI1435195091309
(lp178
I4
aI3
asI1435196141934
(lp179
I2
aI1
asI1435196977519
(lp180
I4
aI3
asI1435199711600
(lp181
I8
aI3
asI1435199584628
(lp182
I8
aI3
asI1435199279480
(lp183
I5
aI0
asI1435195756922
(lp184
I2
aI1
asI1435196961514
(lp185
I4
aI3
asI1435197163902
(lp186
I4
aI3
asI1435195664768
(lp187
I2
aI1
asI1435197823040
(lp188
I4
aI3
asI1435198003587
(lp189
I2
aI1
asI1435198488965
(lp190
I11
aI1
asI1435195853190
(lp191
I3
aI2
asI1435196993601
(lp192
I4
aI3
asI1435195376008
(lp193
I2
aI1
asI1435195660695
(lp194
I2
aI1
asI1435197520268
(lp195
I2
aI1
asI1435196881293
(lp196
I4
aI3
asI1435198556560
(lp197
I17
aI1
asI1435197608338
(lp198
I2
aI1
asI1435197704595
(lp199
I2
aI1
asI1435197101806
(lp200
I3
aI2
asI1435199097239
(lp201
I5
aI1
asI1435197516184
(lp202
I2
aI1
asI1435196330393
(lp203
I3
aI2
asI1435196789149
(lp204
I2
aI1
asI1435195953567
(lp205
I2
aI1
asI1435197424033
(lp206
I2
aI1
asI1435195279778
(lp207
I2
aI1
asI1435197700515
(lp208
I2
aI1
asI1435195564453
(lp209
I2
aI1
asI1435199338918
(lp210
I8
aI0
asI1435196234153
(lp211
I2
aI1
asI1435197256106
(lp212
I3
aI2
asI1435196692907
(lp213
I3
aI2
asI1435195945390
(lp214
I2
aI1
asI1435198975848
(lp215
I8
aI4
asI1435195087283
(lp216
I2
aI1
asI1435196559798
(lp217
I3
aI2
asI1435197999543
(lp218
I4
aI3
asI1435195179450
(lp219
I2
aI1
asI1435195424159
(lp220
I4
aI3
asI1435195849148
(lp221
I2
aI1
asI1435196877245
(lp222
I2
aI1
asI1435196137919
(lp223
I2
aI1
asI1435196568002
(lp224
I3
aI2
asI1435200078275
(lp225
I2
aI1
asI1435198943690
(lp226
I9
aI5
asI1435198034382
(lp227
I7
aI2
asI1435195752911
(lp228
I2
aI1
asI1435195656656
(lp229
I2
aI1
asI1435197636385
(lp230
I2
aI1
asI1435195468245
(lp231
I2
aI1
asI1435198024151
(lp232
I6
aI3
asI1435197025700
(lp233
I4
aI3
asI1435196214131
(lp234
I4
aI3
asI1435197057786
(lp235
I2
aI1
asI1435198427616
(lp236
I6
aI0
asI1435198947809
(lp237
I8
aI4
asI1435197069798
(lp238
I2
aI1
asI1435196654060
(lp239
I2
aI1
asI1435197420013
(lp240
I4
aI3
asI1435197807086
(lp241
I2
aI1
asI1435196326386
(lp242
I2
aI1
asI1435197159923
(lp243
I3
aI2
asI1435196282288
(lp244
I4
aI3
asI1435195560439
(lp245
I2
aI1
asI1435196230138
(lp246
I3
aI2
asI1435198652923
(lp247
I2
aI0
asI1435195941375
(lp248
I2
aI1
asI1435195275778
(lp249
I3
aI2
asI1435197895172
(lp250
I2
aI1
asI1435197696518
(lp251
I2
aI1
asI1435196210124
(lp252
I4
aI3
asI1435195372053
(lp253
I3
aI2
asI1435196785165
(lp254
I4
aI3
asI1435199741489
(lp255
I9
aI4
asI1435196973587
(lp256
I4
aI3
asI1435199334932
(lp257
I6
aI2
asI1435195083285
(lp258
I2
aI1
asI1435196322329
(lp259
I2
aI1
asI1435195652636
(lp260
I2
aI1
asI1435197995549
(lp261
I3
aI2
asI1435196688926
(lp262
I3
aI2
asI1435196037664
(lp263
I2
aI1
asI1435198818849
(lp264
I14
aI0
asI1435195464227
(lp265
I2
aI1
asI1435199619620
(lp266
I8
aI3
asI1435197252133
(lp267
I2
aI1
asI1435199437350
(lp268
I6
aI0
asI1435194608672
(lp269
I13
aI0
asI1435197106728
(lp270
I2
aI1
asI1435197155883
(lp271
I4
aI3
asI1435196555820
(lp272
I3
aI2
asI1435197375922
(lp273
I2
aI1
asI1435195175470
(lp274
I2
aI1
asI1435198543027
(lp275
I16
aI2
asI1435195845168
(lp276
I3
aI2
asI1435197803058
(lp277
I2
aI1
asI1435199595955
(lp278
I7
aI2
asI1435194700340
(lp279
I18
aI2
asI1435197065781
(lp280
I4
aI3
asI1435199379025
(lp281
I5
aI1
asI1435195271735
(lp282
I2
aI1
asI1435196133944
(lp283
I2
aI1
asI1435196684860
(lp284
I3
aI2
asI1435197600319
(lp285
I2
aI1
asI1435195937346
(lp286
I2
aI1
asI1435198124611
(lp287
I23
aI2
asI1435194907205
(lp288
I15
aI4
asI1435197604422
(lp289
I2
aI1
asI1435196941409
(lp290
I1
aI1
asI1435196969544
(lp291
I4
aI3
asI1435199934562
(lp292
I8
aI4
asI1435198648910
(lp293
I2
aI0
asI1435197416015
(lp294
I4
aI3
asI1435195139440
(lp295
I3
aI2
asI1435197991506
(lp296
I2
aI1
asI1435197508179
(lp297
I2
aI1
asI1435196781141
(lp298
I2
aI1
asI1435199343191
(lp299
I7
aI1
asI1435199085145
(lp300
I6
aI1
asI1435195736848
(lp301
I2
aI1
asI1435195556455
(lp302
I2
aI1
asI1435196318312
(lp303
I2
aI1
asI1435197915318
(lp304
I2
aI1
asI1435196226158
(lp305
I2
aI1
asI1435195748976
(lp306
I2
aI1
asI1435195841137
(lp307
I4
aI3
asI1435195744882
(lp308
I2
aI1
asI1435199093363
(lp309
I5
aI1
asI1435196551796
(lp310
I3
aI2
asI1435197248119
(lp311
I2
aI1
asI1435196033658
(lp312
I2
aI1
asI1435197692540
(lp313
I3
aI2
asI1435195460221
(lp314
I3
aI2
asI1435199796155
(lp315
I9
aI4
asI1435195267712
(lp316
I2
aI1
asI1435195079304
(lp317
I3
aI2
asI1435196459658
(lp318
I4
aI3
asI1435196641931
(lp319
I2
aI1
asI1435199105133
(lp320
I5
aI0
asI1435197790869
(lp321
I2
aI1
asI1435200070295
(lp322
I2
aI1
asI1435197504155
(lp323
I2
aI1
asI1435195933340
(lp324
I2
aI1
asI1435197143834
(lp325
I2
aI1
asI1435196869278
(lp326
I3
aI2
asI1435198631365
(lp327
I4
aI1
asI1435196861303
(lp328
I3
aI2
asI1435196965539
(lp329
I3
aI2
asI1435200050289
(lp330
I6
aI5
asI1435196547753
(lp331
I3
aI2
asI1435198644906
(lp332
I3
aI1
asI1435197987499
(lp333
I2
aI1
asI1435196678482
(lp334
I3
aI2
asI1435196222125
(lp335
I2
aI1
asI1435195171502
(lp336
I2
aI1
asI1435195364016
(lp337
I3
aI2
asI1435196455605
(lp338
I4
aI3
asI1435196777143
(lp339
I2
aI1
asI1435196129976
(lp340
I2
aI1
asI1435197452063
(lp341
I4
aI3
asI1435197412028
(lp342
I2
aI1
asI1435198210753
(lp343
I10
aI0
asI1435197688516
(lp344
I3
aI2
asI1435200062241
(lp345
I4
aI3
asI1435197244105
(lp346
I2
aI1
asI1435195648715
(lp347
I2
aI1
asI1435195360034
(lp348
I3
aI2
asI1435195837136
(lp349
I3
aI2
asI1435195768952
(lp350
I3
aI2
asI1435197147859
(lp351
I4
aI3
asI1435197077837
(lp352
I4
aI3
asI1435194433657
(lp353
I26
aI0
asI1435195075288
(lp354
I2
aI1
asI1435197085816
(lp355
I2
aI1
asI1435199735571
(lp356
I9
aI4
asI1435195644635
(lp357
I2
aI1
asI1435195167458
(lp358
I2
aI1
asI1435195263716
(lp359
I2
aI1
asI1435194525718
(lp360
I18
aI1
asI1435197596390
(lp361
I2
aI1
asI1435199314875
(lp362
I9
aI3
asI1435196314345
(lp363
I4
aI3
asI1435198696170
(lp364
I3
aI0
asI1435195456235
(lp365
I2
aI1
asI1435197407981
(lp366
I4
aI3
asI1435197786864
(lp367
I2
aI1
asI1435195929329
(lp368
I2
aI1
asI1435196773108
(lp369
I2
aI1
asI1435196474101
(lp370
I2
aI1
asI1435196218103
(lp371
I4
aI3
asI1435198397177
(lp372
I4
aI0
asI1435196543738
(lp373
I2
aI1
asI1435196025595
(lp374
I2
aI1
asI1435195764936
(lp375
I2
aI1
asI1435197684478
(lp376
I2
aI1
asI1435199324927
(lp377
I9
aI0
asI1435200066307
(lp378
I4
aI3
asI1435195740932
(lp379
I2
aI1
asI1435197883143
(lp380
I4
aI3
asI1435196125964
(lp381
I2
aI1
asI1435195119371
(lp382
I2
aI1
asI1435197115826
(lp383
I2
aI1
asI1435195548432
(lp384
I2
aI1
asI1435198438164
(lp385
I4
aI0
asI1435194530606
(lp386
I17
aI1
asI1435199970572
(lp387
I7
aI2
asI1435199077144
(lp388
I7
aI1
asI1435199089434
(lp389
I5
aI0
asI1435197592348
(lp390
I2
aI1
asI1435195833117
(lp391
I2
aI1
asI1435196531797
(lp392
I2
aI1
asI1435196463904
(lp393
I2
aI1
asI1435197983521
(lp394
I2
aI1
asI1435196637986
(lp395
I3
aI2
asI1435196925403
(lp396
I4
aI3
asI1435195452198
(lp397
I2
aI1
asI1435195071281
(lp398
I2
aI1
asI1435197343879
(lp399
I2
aI1
asI1435195023154
(lp400
I2
aI1
asI1435196121895
(lp401
I2
aI1
asI1435197053745
(lp402
I3
aI2
asI1435197782836
(lp403
I4
aI3
asI1435195163449
(lp404
I3
aI2
asI1435195640635
(lp405
I2
aI1
asI1435195259712
(lp406
I4
aI3
asI1435196853232
(lp407
I3
aI2
asI1435196633925
(lp408
I2
aI1
asI1435196889348
(lp409
I2
aI1
asI1435197403983
(lp410
I3
aI2
asI1435196021584
(lp411
I3
aI2
asI1435195355985
(lp412
I2
aI1
asI1435197320334
(lp413
I4
aI3
asI1435196769110
(lp414
I3
aI2
asI1435195544408
(lp415
I3
aI2
asI1435195227620
(lp416
I3
aI2
asI1435197240155
(lp417
I2
aI1
asI1435196483653
(lp418
I4
aI3
asI1435198520161
(lp419
I4
aI0
asI1435195925347
(lp420
I2
aI1
asI1435197891211
(lp421
I2
aI1
asI1435195829094
(lp422
I4
aI3
asI1435196310375
(lp423
I2
aI1
asI1435197151856
(lp424
I2
aI1
asI1435199066992
(lp425
I3
aI0
asI1435195255666
(lp426
I2
aI1
asI1435198230675
(lp427
I14
aI0
asI1435197588341
(lp428
I2
aI1
asI1435197496183
(lp429
I2
aI1
asI1435195732856
(lp430
I2
aI1
asI1435196451714
(lp431
I2
aI1
asI1435199133163
(lp432
I5
aI1
asI1435199081348
(lp433
I5
aI0
asI1435196953483
(lp434
I3
aI2
asI1435197680524
(lp435
I2
aI1
asI1435198219150
(lp436
I13
aI1
asI1435195448208
(lp437
I3
aI2
asI1435198665619
(lp438
I1
aI0
asI1435196649966
(lp439
I2
aI1
asI1435196765081
(lp440
I2
aI1
asI1435196629915
(lp441
I2
aI1
asI1435199790234
(lp442
I7
aI3
asI1435195019154
(lp443
I2
aI1
asI1435195784991
(lp444
I3
aI2
asI1435200058273
(lp445
I2
aI1
asI1435195540389
(lp446
I2
aI1
asI1435197676454
(lp447
I3
aI2
asI1435196117928
(lp448
I2
aI1
asI1435197236137
(lp449
I2
aI1
asI1435196017578
(lp450
I2
aI1
asI1435196306347
(lp451
I4
aI3
asI1435196857260
(lp452
I4
aI3
asI1435197340146
(lp453
I4
aI3
asI1435197139886
(lp454
I3
aI2
asI1435196170024
(lp455
I2
aI1
asI1435198280624
(lp456
I12
aI1
asI1435197979571
(lp457
I2
aI1
asI1435195921332
(lp458
I2
aI1
asI1435195159478
(lp459
I2
aI1
asI1435195636663
(lp460
I2
aI1
asI1435197500347
(lp461
I2
aI1
asI1435195351996
(lp462
I2
aI1
asI1435197119785
(lp463
I2
aI1
asI1435199009729
(lp464
I4
aI1
asI1435195063234
(lp465
I3
aI2
asI1435199832225
(lp466
I4
aI0
asI1435197232072
(lp467
I2
aI1
asI1435199411703
(lp468
I5
aI0
asI1435196539852
(lp469
I2
aI1
asI1435197492175
(lp470
I2
aI1
asI1435197584338
(lp471
I2
aI1
asI1435195508323
(lp472
I2
aI1
asI1435200007131
(lp473
I9
aI5
asI1435195027135
(lp474
I2
aI1
asI1435198661598
(lp475
I3
aI1
asI1435200054242
(lp476
I2
aI1
asI1435198985188
(lp477
I8
aI4
asI1435197135848
(lp478
I3
aI2
asI1435197975529
(lp479
I2
aI1
asI1435199771718
(lp480
I7
aI2
asI1435197875179
(lp481
I2
aI1
asI1435195155437
(lp482
I4
aI3
asI1435196625902
(lp483
I2
aI1
asI1435198225392
(lp484
I8
aI1
asI1435195728881
(lp485
I2
aI1
asI1435199161331
(lp486
I9
aI2
asI1435197045749
(lp487
I4
aI3
asI1435196294313
(lp488
I3
aI2
asI1435195251708
(lp489
I2
aI1
asI1435196761086
(lp490
I2
aI1
asI1435199005695
(lp491
I4
aI3
asI1435199101099
(lp492
I7
aI1
asI1435196113924
(lp493
I2
aI1
asI1435195444230
(lp494
I2
aI1
asI1435199063048
(lp495
I7
aI0
asI1435195917321
(lp496
I2
aI1
asI1435196302346
(lp497
I4
aI3
asI1435197228044
(lp498
I2
aI1
asI1435200030210
(lp499
I2
aI2
asI1435198190606
(lp500
I26
aI4
asI1435199995052
(lp501
I10
aI2
asI1435197672470
(lp502
I3
aI2
asI1435195067225
(lp503
I2
aI1
asI1435199383044
(lp504
I14
aI3
asI1435197772828
(lp505
I2
aI1
asI1435196945438
(lp506
I4
aI3
asI1435197324319
(lp507
I2
aI1
asI1435199988768
(lp508
I10
aI4
asI1435195343910
(lp509
I3
aI2
asI1435196109864
(lp510
I2
aI1
asI1435199729500
(lp511
I7
aI3
asI1435196893311
(lp512
I2
aI1
asI1435195724844
(lp513
I2
aI1
asI1435196957470
(lp514
I3
aI2
asI1435197971506
(lp515
I2
aI1
asI1435199153331
(lp516
I10
aI1
asI1435195536438
(lp517
I2
aI1
asI1435199157303
(lp518
I9
aI1
asI1435195151416
(lp519
I2
aI1
asI1435198657597
(lp520
I4
aI2
asI1435195821118
(lp521
I2
aI1
asI1435196519736
(lp522
I2
aI1
asI1435199861826
(lp523
I5
aI2
asI1435195247684
(lp524
I2
aI1
asI1435196757061
(lp525
I3
aI2
asI1435195628614
(lp526
I2
aI1
asI1435199777863
(lp527
I7
aI2
asI1435195913288
(lp528
I2
aI1
asI1435195440204
(lp529
I2
aI1
asI1435199923277
(lp530
I4
aI2
asI1435197863054
(lp531
I2
aI1
asI1435197798925
(lp532
I2
aI1
asI1435199589972
(lp533
I7
aI3
asI1435196298323
(lp534
I2
aI1
asI1435197488213
(lp535
I2
aI1
asI1435195817046
(lp536
I2
aI1
asI1435197768792
(lp537
I2
aI1
asI1435197131865
(lp538
I2
aI1
asI1435195059293
(lp539
I2
aI1
asI1435197580382
(lp540
I4
aI3
asI1435197391968
(lp541
I3
aI2
asI1435199917153
(lp542
I9
aI3
asI1435199784034
(lp543
I8
aI2
asI1435197037667
(lp544
I2
aI1
asI1435197224039
(lp545
I2
aI1
asI1435196202088
(lp546
I2
aI1
asI1435197041769
(lp547
I4
aI3
asI1435195055210
(lp548
I3
aI2
asI1435199982700
(lp549
I9
aI4
asI1435199849582
(lp550
I7
aI3
asI1435195532401
(lp551
I2
aI1
asI1435199001717
(lp552
I5
aI4
asI1435196157960
(lp553
I2
aI1
asI1435196009592
(lp554
I2
aI1
asI1435196105849
(lp555
I2
aI1
asI1435197576314
(lp556
I4
aI3
asI1435199929468
(lp557
I6
aI2
asI1435197668478
(lp558
I4
aI3
asI1435197484159
(lp559
I2
aI1
asI1435196829206
(lp560
I3
aI2
asI1435198622857
(lp561
I1
aI0
asI1435195720846
(lp562
I2
aI1
asI1435194977426
(lp563
I8
aI5
asI1435195339927
(lp564
I2
aI1
asI1435197127832
(lp565
I2
aI1
asI1435196849306
(lp566
I3
aI2
asI1435196198043
(lp567
I4
aI3
asI1435197029706
(lp568
I2
aI1
asI1435195909278
(lp569
I2
aI1
asI1435195624609
(lp570
I2
aI1
asI1435197967522
(lp571
I6
aI5
asI1435200046248
(lp572
I5
aI4
asI1435200074268
(lp573
I2
aI1
asI1435195047346
(lp574
I2
aI1
asI1435196005548
(lp575
I2
aI1
asI1435195243695
(lp576
I2
aI1
asI1435199458481
(lp577
I7
aI2
asI1435198991539
(lp578
I4
aI2
asI1435196753076
(lp579
I2
aI1
asI1435196937398
(lp580
I3
aI2
asI1435198137527
(lp581
I13
aI1
asI1435199532218
(lp582
I7
aI3
asI1435195813051
(lp583
I3
aI2
asI1435196041757
(lp584
I2
aI1
asI1435195147454
(lp585
I2
aI1
asI1435198997697
(lp586
I3
aI2
asI1435197220034
(lp587
I3
aI2
asI1435199399115
(lp588
I9
aI2
asI1435195436229
(lp589
I2
aI1
asI1435197387975
(lp590
I3
aI2
asI1435196523720
(lp591
I2
aI1
asI1435196845257
(lp592
I4
aI3
asI1435197316299
(lp593
I2
aI1
asI1435195043362
(lp594
I2
aI1
asI1435196527822
(lp595
I2
aI1
asI1435199904976
(lp596
I9
aI4
asI1435197879160
(lp597
I2
aI1
asI1435197963475
(lp598
I4
aI3
asI1435199311060
(lp599
I6
aI0
asI1435196617934
(lp600
I2
aI1
asI1435196206078
(lp601
I4
aI3
asI1435199259865
(lp602
I9
aI1
asI1435195528411
(lp603
I2
aI1
asI1435199403228
(lp604
I6
aI1
asI1435197512229
(lp605
I2
aI1
asI1435197123808
(lp606
I2
aI1
asI1435197572322
(lp607
I3
aI2
asI1435197764835
(lp608
I3
aI2
asI1435199759511
(lp609
I6
aI2
asI1435196613863
(lp610
I2
aI1
asI1435195620594
(lp611
I2
aI1
asI1435196841203
(lp612
I3
aI2
asI1435199149301
(lp613
I6
aI1
asI1435197480182
(lp614
I3
aI2
asI1435195716858
(lp615
I2
aI1
asI1435199407356
(lp616
I6
aI1
asI1435195239677
(lp617
I2
aI1
asI1435197033726
(lp618
I2
aI1
asI1435196749055
(lp619
I2
aI1
asI1435197887133
(lp620
I2
aI1
asI1435195905281
(lp621
I2
aI1
asI1435195143426
(lp622
I2
aI1
asI1435194670643
(lp623
I15
aI3
asI1435198379268
(lp624
I8
aI0
asI1435196001541
(lp625
I2
aI1
asI1435195051273
(lp626
I2
aI1
asI1435199145228
(lp627
I5
aI1
asI1435195809037
(lp628
I3
aI2
asI1435194346767
(lp629
I24
aI0
asI1435196933392
(lp630
I2
aI1
asI1435196101848
(lp631
I2
aI1
asI1435199165315
(lp632
I5
aI0
asI1435197312276
(lp633
I2
aI1
asI1435199723737
(lp634
I10
aI3
asI1435197859096
(lp635
I2
aI1
asI1435199753498
(lp636
I10
aI4
asI1435197664542
(lp637
I2
aI1
asI1435196645936
(lp638
I3
aI2
asI1435196495750
(lp639
I2
aI1
asI1435199307047
(lp640
I8
aI1
asI1435197568297
(lp641
I4
aI3
asI1435196194091
(lp642
I2
aI1
asI1435195524396
(lp643
I2
aI1
asI1435197959469
(lp644
I3
aI2
asI1435199601968
(lp645
I6
aI2
asI1435196286259
(lp646
I2
aI1
asI1435195428150
(lp647
I2
aI1
asI1435196609848
(lp648
I2
aI1
asI1435195235641
(lp649
I2
aI1
asI1435195712826
(lp650
I2
aI1
asI1435195335903
(lp651
I2
aI1
asI1435196507701
(lp652
I2
aI1
asI1435196873270
(lp653
I2
aI1
asI1435197811029
(lp654
I2
aI1
asI1435197476168
(lp655
I2
aI1
asI1435198375242
(lp656
I7
aI0
asI1435195367991
(lp657
I4
aI3
asI1435199843660
(lp658
I6
aI2
asI1435199141197
(lp659
I4
aI0
asI1435200042320
(lp660
I8
aI6
asI1435199391057
(lp661
I6
aI0
asI1435198690643
(lp662
I3
aI0
asI1435197855060
(lp663
I2
aI1
asI1435195997527
(lp664
I2
aI1
asI1435197660504
(lp665
I4
aI3
asI1435199630682
(lp666
I9
aI4
asI1435196446043
(lp667
I2
aI1
asI1435197379932
(lp668
I2
aI1
asI1435196837219
(lp669
I3
aI2
asI1435197308263
(lp670
I2
aI1
asI1435195520364
(lp671
I2
aI1
asI1435197280146
(lp672
I4
aI3
asI1435196515694
(lp673
I4
aI3
asI1435197564271
(lp674
I2
aI1
asI1435195616624
(lp675
I2
aI1
asI1435196929395
(lp676
I4
aI3
asI1435197777268
(lp677
I3
aI2
asI1435199855989
(lp678
I6
aI2
asI1435197216121
(lp679
I2
aI1
asI1435199350941
(lp680
I8
aI1
asI1435196093820
(lp681
I2
aI1
asI1435197955453
(lp682
I4
aI3
asI1435194349461
(lp683
I34
aI1
asI1435197652408
(lp684
I3
aI2
asI1435198109062
(lp685
I21
aI1
asI1435198686599
(lp686
I4
aI0
asI1435195612552
(lp687
I2
aI1
asI1435196745099
(lp688
I3
aI2
asI1435195901326
(lp689
I2
aI1
asI1435196190096
(lp690
I3
aI2
asI1435197472147
(lp691
I2
aI1
asI1435198072214
(lp692
I13
aI3
asI1435196468121
(lp693
I2
aI1
asI1435199059355
(lp694
I6
aI1
asI1435197212063
(lp695
I4
aI3
asI1435195708833
(lp696
I2
aI1
asI1435199946851
(lp697
I6
aI3
asI1435199071652
(lp698
I5
aI1
asI1435195231654
(lp699
I3
aI2
asI1435199170035
(lp700
I5
aI0
asI1435197760944
(lp701
I2
aI1
asI1435195516337
(lp702
I3
aI2
asI1435196605874
(lp703
I2
aI1
asI1435195287795
(lp704
I3
aI2
asI1435200038326
(lp705
I6
aI4
asI1435197352008
(lp706
I4
aI3
asI1435198213564
(lp707
I8
aI0
asI1435195805117
(lp708
I4
aI3
asI1435196833215
(lp709
I2
aI1
asI1435197756864
(lp710
I2
aI1
asI1435195432182
(lp711
I2
aI1
asI1435196741062
(lp712
I2
aI1
asI1435199387081
(lp713
I10
aI2
asI1435197021643
(lp714
I4
aI3
asI1435195801036
(lp715
I4
aI3
asI1435197208013
(lp716
I2
aI1
asI1435197300176
(lp717
I2
aI1
asI1435196186065
(lp718
I2
aI1
asI1435197097912
(lp719
I2
aI1
asI1435195420116
(lp720
I2
aI1
asI1435197560278
(lp721
I3
aI2
asI1435195039311
(lp722
I3
aI2
asI1435195993565
(lp723
I2
aI1
asI1435197049765
(lp724
I4
aI3
asI1435199747555
(lp725
I6
aI3
asI1435198131684
(lp726
I14
aI2
asI1435200000796
(lp727
I9
aI4
asI1435197843025
(lp728
I2
aI1
asI1435197304296
(lp729
I2
aI1
asI1435198993899
(lp730
I3
aI2
asI1435195897327
(lp731
I3
aI2
asI1435196511728
(lp732
I3
aI2
asI1435195131377
(lp733
I2
aI1
asI1435195704819
(lp734
I2
aI1
asI1435195323893
(lp735
I2
aI1
asI1435196601847
(lp736
I2
aI1
asI1435197468153
(lp737
I2
aI1
asI1435198371322
(lp738
I10
aI0
asI1435199137278
(lp739
I4
aI0
asI1435197328896
(lp740
I3
aI2
asI1435195608577
(lp741
I2
aI1
asI1435197951490
(lp742
I4
aI3
asI1435195035139
(lp743
I3
aI2
asI1435198936580
(lp744
I5
aI3
asI1435196290305
(lp745
I2
aI1
asI1435198367242
(lp746
I7
aI0
asI1435194522199
(lp747
I11
aI1
asI1435198526991
(lp748
I7
aI0
asI1435196182037
(lp749
I2
aI1
asI1435196089878
(lp750
I2
aI1
asI1435198188121
(lp751
I23
aI4
asI1435198619161
(lp752
I3
aI0
asI1435197648412
(lp753
I2
aI1
asI1435197867093
(lp754
I2
aI1
asI1435197371935
(lp755
I3
aI2
asI1435199264288
(lp756
I7
aI1
asI1435196737058
(lp757
I2
aI1
asI1435198516827
(lp758
I10
aI0
asI1435196085801
(lp759
I2
aI1
asI1435197017642
(lp760
I3
aI2
asI1435197432071
(lp761
I3
aI2
asI1435199940435
(lp762
I8
aI4
asI1435195989550
(lp763
I2
aI1
asI1435195319856
(lp764
I2
aI1
asI1435196278321
(lp765
I3
aI2
asI1435197947443
(lp766
I2
aI1
asI1435195223605
(lp767
I2
aI1
asI1435195604534
(lp768
I2
aI1
asI1435200034359
(lp769
I6
aI5
asI1435195512377
(lp770
I2
aI1
asI1435195700796
(lp771
I2
aI1
asI1435199329855
(lp772
I7
aI0
asI1435195797059
(lp773
I2
aI1
asI1435199541857
(lp774
I8
aI3
asI1435199256136
(lp775
I8
aI0
asI1435196597833
(lp776
I2
aI1
asI1435197871118
(lp777
I2
aI1
asI1435196370507
(lp778
I2
aI1
asI1435197464143
(lp779
I2
aI1
asI1435199129168
(lp780
I11
aI1
asI1435196178001
(lp781
I2
aI1
asI1435197204067
(lp782
I3
aI2
asI1435198363220
(lp783
I6
aI0
asI1435195893333
(lp784
I3
aI2
asI1435195031131
(lp785
I2
aI1
asI1435195792988
(lp786
I2
aI1
asI1435199109050
(lp787
I5
aI0
asI1435197851231
(lp788
I2
aI1
asI1435196921442
(lp789
I3
aI2
asI1435197296227
(lp790
I2
aI1
asI1435198627429
(lp791
I1
aI0
asI1435196733031
(lp792
I4
aI3
asI1435198228072
(lp793
I13
aI0
asI1435199892412
(lp794
I9
aI4
asI1435199624810
(lp795
I9
aI4
asI1435199911016
(lp796
I6
aI2
asI1435197367917
(lp797
I4
aI3
asI1435196274288
(lp798
I3
aI2
asI1435197199987
(lp799
I2
aI1
asI1435195416181
(lp800
I3
aI2
asI1435196366454
(lp801
I2
aI1
asI1435195985528
(lp802
I2
aI1
asI1435194697663
(lp803
I18
aI2
asI1435195099413
(lp804
I2
aI1
asI1435199813736
(lp805
I9
aI4
asI1435197644420
(lp806
I3
aI2
asI1435196270213
(lp807
I2
aI1
asI1435197556358
(lp808
I2
aI1
asI1435195315847
(lp809
I2
aI1
asI1435197847176
(lp810
I2
aI1
asI1435196081805
(lp811
I2
aI1
asI1435195127439
(lp812
I3
aI2
asI1435199371015
(lp813
I10
aI1
asI1435197943442
(lp814
I2
aI1
asI1435195412115
(lp815
I3
aI2
asI1435197292180
(lp816
I2
aI1
asI1435194666646
(lp817
I17
aI2
asI1435197448132
(lp818
I4
aI3
asI1435196917402
(lp819
I4
aI3
asI1435199577758
(lp820
I8
aI3
asI1435197794928
(lp821
I4
aI3
asI1435197839013
(lp822
I2
aI1
asI1435199375014
(lp823
I7
aI1
asI1435196825256
(lp824
I2
aI1
asI1435195219625
(lp825
I3
aI2
asI1435197460139
(lp826
I2
aI1
asI1435196729004
(lp827
I2
aI1
asI1435195632584
(lp828
I2
aI1
asI1435197552306
(lp829
I2
aI1
asI1435195825061
(lp830
I2
aI1
asI1435195696822
(lp831
I2
aI1
asI1435195885240
(lp832
I4
aI3
asI1435196503737
(lp833
I4
aI3
asI1435196174010
(lp834
I2
aI1
asI1435198150331
(lp835
I14
aI1
asI1435198359230
(lp836
I8
aI0
asI1435195504319
(lp837
I2
aI1
asI1435199571648
(lp838
I9
aI3
asI1435194542637
(lp839
I17
aI1
asI1435195889270
(lp840
I3
aI2
asI1435195981511
(lp841
I2
aI1
asI1435197363912
(lp842
I2
aI1
asI1435197009609
(lp843
I3
aI2
asI1435197061751
(lp844
I4
aI3
asI1435195408076
(lp845
I2
aI1
asI1435195600590
(lp846
I2
aI1
asI1435198058191
(lp847
I8
aI2
asI1435195789009
(lp848
I3
aI2
asI1435197640404
(lp849
I2
aI1
asI1435199547684
(lp850
I7
aI2
asI1435195311834
(lp851
I3
aI2
asI1435197632463
(lp852
I3
aI2
asI1435196593885
(lp853
I2
aI1
asI1435199449381
(lp854
I9
aI1
asI1435197548257
(lp855
I2
aI1
asI1435197288162
(lp856
I3
aI2
asI1435196266212
(lp857
I2
aI1
asI1435195596518
(lp858
I2
aI1
asI1435196499690
(lp859
I2
aI1
asI1435194662636
(lp860
I18
aI3
asI1435196535762
(lp861
I2
aI1
asI1435195215598
(lp862
I3
aI2
asI1435198254832
(lp863
I13
aI0
asI1435195095336
(lp864
I1
aI0
asI1435196913395
(lp865
I3
aI2
asI1435196362484
(lp866
I2
aI2
asI1435196821239
(lp867
I2
aI1
asI1435196589823
(lp868
I2
aI1
asI1435197196035
(lp869
I2
aI1
asI1435199565573
(lp870
I9
aI4
asI1435196358407
(lp871
I3
aI2
asI1435197191947
(lp872
I2
aI1
asI1435195500307
(lp873
I3
aI2
asI1435195211540
(lp874
I2
aI1
asI1435194492695
(lp875
I28
aI2
asI1435199837955
(lp876
I7
aI4
asI1435195977499
(lp877
I2
aI1
asI1435196674010
(lp878
I2
aI1
asI1435198144287
(lp879
I15
aI0
asI1435199355295
(lp880
I9
aI2
asI1435197740834
(lp881
I2
aI1
asI1435197359909
(lp882
I2
aI1
asI1435197749032
(lp883
I2
aI1
asI1435199117097
(lp884
I5
aI0
asI1435197005610
(lp885
I4
aI3
asI1435196725036
(lp886
I2
aI1
asI1435195307821
(lp887
I2
aI1
asI1435198670639
(lp888
I3
aI0
asI1435195688754
(lp889
I2
aI1
asI1435196909368
(lp890
I3
aI2
asI1435199125309
(lp891
I4
aI0
asI1435196817215
(lp892
I3
aI2
asI1435196262211
(lp893
I3
aI2
asI1435197456196
(lp894
I2
aI1
asI1435198355271
(lp895
I11
aI0
asI1435197355850
(lp896
I2
aI1
asI1435197744971
(lp897
I3
aI2
asI1435199825742
(lp898
I8
aI2
asI1435198523000
(lp899
I14
aI0
asI1435195881296
(lp900
I4
aI3
asI1435197383992
(lp901
I3
aI2
asI1435199366995
(lp902
I9
aI1
asI1435197935446
(lp903
I2
aI1
asI1435199395129
(lp904
I11
aI3
asI1435197939545
(lp905
I2
aI1
asI1435198569103
(lp906
I9
aI1
asI1435195496284
(lp907
I2
aI1
asI1435197187933
(lp908
I2
aI1
asI1435196905311
(lp909
I3
aI2
asI1435195592546
(lp910
I2
aI1
asI1435198990181
(lp911
I1
aI0
asI1435196354408
(lp912
I4
aI3
asI1435195973483
(lp913
I2
aI1
asI1435199121262
(lp914
I6
aI1
asI1435195404144
(lp915
I4
aI3
asI1435195877234
(lp916
I4
aI3
asI1435199819635
(lp917
I7
aI3
asI1435195207542
(lp918
I2
aI1
asI1435196013545
(lp919
I2
aI1
asI1435199113081
(lp920
I4
aI0
asI1435195331903
(lp921
I2
aI1
asI1435197835136
(lp922
I2
aI1
asI1435197544322
(lp923
I2
aI1
asI1435196721027
(lp924
I2
aI1
asI1435195115398
(lp925
I2
aI1
asI1435196166023
(lp926
I2
aI1
asI1435200012268
(lp927
I9
aI5
asI1435196491658
(lp928
I2
aI1
asI1435194658699
(lp929
I14
aI2
asI1435196069773
(lp930
I2
aI1
asI1435195969426
(lp931
I2
aI1
asI1435196813204
(lp932
I2
aI1
asI1435197831061
(lp933
I2
aI1
asI1435198513047
(lp934
I5
aI1
asI1435195781016
(lp935
I2
aI1
asI1435198486425
(lp936
I9
aI0
asI1435195303834
(lp937
I2
aI1
asI1435197093788
(lp938
I2
aI1
asI1435198179229
(lp939
I14
aI0
asI1435197931422
(lp940
I2
aI1
asI1435195588511
(lp941
I2
aI1
asI1435197001632
(lp942
I3
aI2
asI1435197724577
(lp943
I2
aI1
asI1435195684770
(lp944
I2
aI1
asI1435195552411
(lp945
I2
aI1
asI1435199319366
(lp946
I6
aI0
asI1435196029643
(lp947
I2
aI1
asI1435197395953
(lp948
I3
aI2
asI1435199362986
(lp949
I7
aI1
asI1435196716972
(lp950
I2
aI1
asI1435197284270
(lp951
I2
aI1
asI1435195400111
(lp952
I3
aI2
asI1435197728689
(lp953
I2
aI1
asI1435195111346
(lp954
I2
aI1
asI1435197656499
(lp955
I2
aI1
asI1435198154678
(lp956
I14
aI1
asI1435197540280
(lp957
I2
aI1
asI1435198508986
(lp958
I5
aI0
asI1435195015100
(lp959
I2
aI1
asI1435196584266
(lp960
I2
aI1
asI1435198838719
(lp961
I17
aI5
asI1435196065728
(lp962
I2
aI1
asI1435197827009
(lp963
I2
aI1
asI1435198971844
(lp964
I7
aI4
asI1435195492298
(lp965
I3
aI2
asI1435196949495
(lp966
I4
aI3
asI1435195873230
(lp967
I3
aI2
asI1435197183951
(lp968
I3
aI2
asI1435196885295
(lp969
I3
aI2
asI1435195299794
(lp970
I2
aI1
asI1435196579797
(lp971
I3
aI2
asI1435198222294
(lp972
I12
aI1
asI1435198816217
(lp973
I4
aI0
asI1435197276122
(lp974
I4
aI3
asI1435196981583
(lp975
I2
aI1
asI1435196162013
(lp976
I2
aI1
asI1435197907207
(lp977
I2
aI1
asI1435195203553
(lp978
I2
aI1
asI1435195776995
(lp979
I2
aI1
asI1435199293412
(lp980
I7
aI1
asI1435196997606
(lp981
I3
aI2
asI1435198121960
(lp982
I22
aI2
asI1435198540472
(lp983
I12
aI2
asI1435195396076
(lp984
I2
aI1
asI1435198615890
(lp985
I3
aI0
asI1435196350446
(lp986
I4
aI3
asI1435196073768
(lp987
I2
aI1
asI1435197444081
(lp988
I4
aI3
asI1435199553524
(lp989
I6
aI2
asI1435197736949
(lp990
I2
aI1
asI1435195680758
(lp991
I2
aI1
asI1435196254203
(lp992
I4
aI3
asI1435197536252
(lp993
I2
aI1
asI1435196901373
(lp994
I4
aI3
asI1435199236095
(lp995
I8
aI2
as.